target datalayout = "e-m:e-p270:32:32-p271:32:32-p272:64:64-i64:64-i128:128-f80:128-n8:16:32:64-S128"
target triple = "x86_64-pc-linux-gnu"

%class.btCollisionShape = type { ptr, i32, ptr, i32, i32 }

@_ZTV16btCollisionShape = external unnamed_addr constant { [18 x ptr] }, align 8

; Function Attrs: mustprogress nounwind uwtable
define linkonce_odr dso_local void @_ZN16btCollisionShapeC2Ev(ptr noundef nonnull align 8 dereferenceable(32) %0) unnamed_addr #1 comdat align 2 {
  %2 = alloca ptr, align 8
  store ptr %0, ptr %2, align 8, !tbaa !16
  %3 = load ptr, ptr %2, align 8
  store ptr getelementptr inbounds inrange(-16, 128) ({ [18 x ptr] }, ptr @_ZTV16btCollisionShape, i32 0, i32 0, i32 2), ptr %3, align 8, !tbaa !14
  %4 = getelementptr inbounds nuw %class.btCollisionShape, ptr %3, i32 0, i32 1
  store i32 35, ptr %4, align 8, !tbaa !18
  %5 = getelementptr inbounds nuw %class.btCollisionShape, ptr %3, i32 0, i32 2
  store ptr null, ptr %5, align 8, !tbaa !20
  %6 = getelementptr inbounds nuw %class.btCollisionShape, ptr %3, i32 0, i32 3
  store i32 -1, ptr %6, align 8, !tbaa !21
  %7 = getelementptr inbounds nuw %class.btCollisionShape, ptr %3, i32 0, i32 4
  store i32 -1, ptr %7, align 4, !tbaa !22
  ret void
}

; Function Attrs: mustprogress uwtable
define dso_local void @_ZN13btConvexShapeC2Ev(ptr noundef nonnull align 8 dereferenceable(32) %0) unnamed_addr #2 align 2 {
  %2 = alloca ptr, align 8
  store ptr %0, ptr %2, align 8, !tbaa !12
  %3 = load ptr, ptr %2, align 8
  call void @_ZN16btCollisionShapeC2Ev(ptr noundef nonnull align 8 dereferenceable(32) %3)
  store ptr getelementptr inbounds inrange(-16, 184) ({ [25 x ptr] }, ptr @_ZTV13btConvexShape, i32 0, i32 0, i32 2), ptr %3, align 8, !tbaa !14
  ret void
}