; Function Attrs: mustprogress nofree norecurse nosync nounwind willreturn memory(argmem: write) uwtable
define dso_local void @_ZN13btConvexShapeC2Ev(ptr noundef nonnull writeonly align 8 captures(none) dereferenceable(32) initializes((0, 12), (16, 32)) %0) unnamed_addr #0 align 2 {
  %2 = getelementptr inbounds nuw i8, ptr %0, i64 8
  store i32 35, ptr %2, align 8, !tbaa !4
  %3 = getelementptr inbounds nuw i8, ptr %0, i64 16
  store ptr null, ptr %3, align 8, !tbaa !10
  %4 = getelementptr inbounds nuw i8, ptr %0, i64 24
  store i32 -1, ptr %4, align 8, !tbaa !11
  %5 = getelementptr inbounds nuw i8, ptr %0, i64 28
  store i32 -1, ptr %5, align 4, !tbaa !12
  store ptr getelementptr inbounds nuw inrange(-16, 184) (i8, ptr @_ZTV13btConvexShape, i64 16), ptr %0, align 8, !tbaa !13
  ret void
}